; ModuleID = '55/1768.c'
source_filename = "55/1768.c"
target datalayout = "e-m:e-p270:32:32-p271:32:32-p272:64:64-i64:64-f80:128-n8:16:32:64-S128"
target triple = "x86_64-pc-linux-gnu"

@.str = private unnamed_addr constant [11 x i8] c"%d%c%s%c%d\00", align 1
@.str.1 = private unnamed_addr constant [3 x i8] c"%c\00", align 1

; Function Attrs: noinline nounwind uwtable
define dso_local i32 @main() #0 {
  %1 = alloca i32, align 4
  %2 = alloca i32, align 4
  %3 = alloca i32, align 4
  %4 = alloca i32, align 4
  %5 = alloca i32, align 4
  %6 = alloca i32, align 4
  %7 = alloca [1000 x i32], align 16
  %8 = alloca [1000 x i8], align 16
  %9 = alloca i8, align 1
  store i32 0, i32* %1, align 4
  store i32 0, i32* %6, align 4
  %10 = getelementptr inbounds [1000 x i8], [1000 x i8]* %8, i64 0, i64 0
  %11 = call i32 (i8*, ...) @__isoc99_scanf(i8* getelementptr inbounds ([11 x i8], [11 x i8]* @.str, i64 0, i64 0), i32* %4, i8* %9, i8* %10, i8* %9, i32* %5)
  store i32 0, i32* %2, align 4
  br label %12

12:                                               ; preds = %97, %0
  %13 = load i32, i32* %2, align 4
  %14 = sext i32 %13 to i64
  %15 = getelementptr inbounds [1000 x i8], [1000 x i8]* %8, i64 0, i64 %14
  %16 = load i8, i8* %15, align 1
  %17 = sext i8 %16 to i32
  %18 = icmp ne i32 %17, 0
  br i1 %18, label %19, label %100

19:                                               ; preds = %12
  %20 = load i32, i32* %2, align 4
  %21 = sext i32 %20 to i64
  %22 = getelementptr inbounds [1000 x i8], [1000 x i8]* %8, i64 0, i64 %21
  %23 = load i8, i8* %22, align 1
  %24 = sext i8 %23 to i32
  %25 = icmp sge i32 %24, 48
  br i1 %25, label %26, label %44

26:                                               ; preds = %19
  %27 = load i32, i32* %2, align 4
  %28 = sext i32 %27 to i64
  %29 = getelementptr inbounds [1000 x i8], [1000 x i8]* %8, i64 0, i64 %28
  %30 = load i8, i8* %29, align 1
  %31 = sext i8 %30 to i32
  %32 = icmp sle i32 %31, 57
  br i1 %32, label %33, label %44

33:                                               ; preds = %26
  %34 = load i32, i32* %6, align 4
  %35 = load i32, i32* %4, align 4
  %36 = mul nsw i32 %34, %35
  %37 = load i32, i32* %2, align 4
  %38 = sext i32 %37 to i64
  %39 = getelementptr inbounds [1000 x i8], [1000 x i8]* %8, i64 0, i64 %38
  %40 = load i8, i8* %39, align 1
  %41 = sext i8 %40 to i32
  %42 = sub nsw i32 %41, 48
  %43 = add nsw i32 %36, %42
  store i32 %43, i32* %6, align 4
  br label %44

44:                                               ; preds = %33, %26, %19
  %45 = load i32, i32* %2, align 4
  %46 = sext i32 %45 to i64
  %47 = getelementptr inbounds [1000 x i8], [1000 x i8]* %8, i64 0, i64 %46
  %48 = load i8, i8* %47, align 1
  %49 = sext i8 %48 to i32
  %50 = icmp sge i32 %49, 97
  br i1 %50, label %51, label %70

51:                                               ; preds = %44
  %52 = load i32, i32* %2, align 4
  %53 = sext i32 %52 to i64
  %54 = getelementptr inbounds [1000 x i8], [1000 x i8]* %8, i64 0, i64 %53
  %55 = load i8, i8* %54, align 1
  %56 = sext i8 %55 to i32
  %57 = icmp sle i32 %56, 122
  br i1 %57, label %58, label %70

58:                                               ; preds = %51
  %59 = load i32, i32* %6, align 4
  %60 = load i32, i32* %4, align 4
  %61 = mul nsw i32 %59, %60
  %62 = load i32, i32* %2, align 4
  %63 = sext i32 %62 to i64
  %64 = getelementptr inbounds [1000 x i8], [1000 x i8]* %8, i64 0, i64 %63
  %65 = load i8, i8* %64, align 1
  %66 = sext i8 %65 to i32
  %67 = sub nsw i32 %66, 97
  %68 = add nsw i32 %67, 10
  %69 = add nsw i32 %61, %68
  store i32 %69, i32* %6, align 4
  br label %70

70:                                               ; preds = %58, %51, %44
  %71 = load i32, i32* %2, align 4
  %72 = sext i32 %71 to i64
  %73 = getelementptr inbounds [1000 x i8], [1000 x i8]* %8, i64 0, i64 %72
  %74 = load i8, i8* %73, align 1
  %75 = sext i8 %74 to i32
  %76 = icmp sge i32 %75, 65
  br i1 %76, label %77, label %96

77:                                               ; preds = %70
  %78 = load i32, i32* %2, align 4
  %79 = sext i32 %78 to i64
  %80 = getelementptr inbounds [1000 x i8], [1000 x i8]* %8, i64 0, i64 %79
  %81 = load i8, i8* %80, align 1
  %82 = sext i8 %81 to i32
  %83 = icmp sle i32 %82, 90
  br i1 %83, label %84, label %96

84:                                               ; preds = %77
  %85 = load i32, i32* %6, align 4
  %86 = load i32, i32* %4, align 4
  %87 = mul nsw i32 %85, %86
  %88 = load i32, i32* %2, align 4
  %89 = sext i32 %88 to i64
  %90 = getelementptr inbounds [1000 x i8], [1000 x i8]* %8, i64 0, i64 %89
  %91 = load i8, i8* %90, align 1
  %92 = sext i8 %91 to i32
  %93 = sub nsw i32 %92, 65
  %94 = add nsw i32 %93, 10
  %95 = add nsw i32 %87, %94
  store i32 %95, i32* %6, align 4
  br label %96

96:                                               ; preds = %84, %77, %70
  br label %97

97:                                               ; preds = %96
  %98 = load i32, i32* %2, align 4
  %99 = add nsw i32 %98, 1
  store i32 %99, i32* %2, align 4
  br label %12

100:                                              ; preds = %12
  store i32 1, i32* %2, align 4
  br label %101

101:                                              ; preds = %135, %100
  %102 = load i32, i32* %6, align 4
  %103 = load i32, i32* %5, align 4
  %104 = sitofp i32 %103 to double
  %105 = load i32, i32* %2, align 4
  %106 = sitofp i32 %105 to double
  %107 = call double @pow(double %104, double %106) #3
  %108 = fptosi double %107 to i32
  %109 = srem i32 %102, %108
  %110 = load i32, i32* %5, align 4
  %111 = sitofp i32 %110 to double
  %112 = load i32, i32* %2, align 4
  %113 = sub nsw i32 %112, 1
  %114 = sitofp i32 %113 to double
  %115 = call double @pow(double %111, double %114) #3
  %116 = fptosi double %115 to i32
  %117 = sdiv i32 %109, %116
  %118 = load i32, i32* %2, align 4
  %119 = sext i32 %118 to i64
  %120 = getelementptr inbounds [1000 x i32], [1000 x i32]* %7, i64 0, i64 %119
  store i32 %117, i32* %120, align 4
  %121 = load i32, i32* %6, align 4
  %122 = load i32, i32* %6, align 4
  %123 = load i32, i32* %5, align 4
  %124 = sitofp i32 %123 to double
  %125 = load i32, i32* %2, align 4
  %126 = sitofp i32 %125 to double
  %127 = call double @pow(double %124, double %126) #3
  %128 = fptosi double %127 to i32
  %129 = srem i32 %122, %128
  %130 = sub nsw i32 %121, %129
  store i32 %130, i32* %6, align 4
  %131 = load i32, i32* %6, align 4
  %132 = icmp eq i32 %131, 0
  br i1 %132, label %133, label %134

133:                                              ; preds = %101
  br label %138

134:                                              ; preds = %101
  br label %135

135:                                              ; preds = %134
  %136 = load i32, i32* %2, align 4
  %137 = add nsw i32 %136, 1
  store i32 %137, i32* %2, align 4
  br label %101

138:                                              ; preds = %133
  %139 = load i32, i32* %2, align 4
  store i32 %139, i32* %3, align 4
  br label %140

140:                                              ; preds = %171, %138
  %141 = load i32, i32* %3, align 4
  %142 = icmp sge i32 %141, 1
  br i1 %142, label %143, label %174

143:                                              ; preds = %140
  %144 = load i32, i32* %3, align 4
  %145 = sext i32 %144 to i64
  %146 = getelementptr inbounds [1000 x i32], [1000 x i32]* %7, i64 0, i64 %145
  %147 = load i32, i32* %146, align 4
  %148 = icmp sge i32 %147, 0
  br i1 %148, label %149, label %162

149:                                              ; preds = %143
  %150 = load i32, i32* %3, align 4
  %151 = sext i32 %150 to i64
  %152 = getelementptr inbounds [1000 x i32], [1000 x i32]* %7, i64 0, i64 %151
  %153 = load i32, i32* %152, align 4
  %154 = icmp slt i32 %153, 10
  br i1 %154, label %155, label %162

155:                                              ; preds = %149
  %156 = load i32, i32* %3, align 4
  %157 = sext i32 %156 to i64
  %158 = getelementptr inbounds [1000 x i32], [1000 x i32]* %7, i64 0, i64 %157
  %159 = load i32, i32* %158, align 4
  %160 = add nsw i32 %159, 48
  %161 = call i32 (i8*, ...) @printf(i8* getelementptr inbounds ([3 x i8], [3 x i8]* @.str.1, i64 0, i64 0), i32 %160)
  br label %170

162:                                              ; preds = %149, %143
  %163 = load i32, i32* %3, align 4
  %164 = sext i32 %163 to i64
  %165 = getelementptr inbounds [1000 x i32], [1000 x i32]* %7, i64 0, i64 %164
  %166 = load i32, i32* %165, align 4
  %167 = sub nsw i32 %166, 10
  %168 = add nsw i32 %167, 65
  %169 = call i32 (i8*, ...) @printf(i8* getelementptr inbounds ([3 x i8], [3 x i8]* @.str.1, i64 0, i64 0), i32 %168)
  br label %170

170:                                              ; preds = %162, %155
  br label %171

171:                                              ; preds = %170
  %172 = load i32, i32* %3, align 4
  %173 = add nsw i32 %172, -1
  store i32 %173, i32* %3, align 4
  br label %140

174:                                              ; preds = %140
  %175 = load i32, i32* %1, align 4
  ret i32 %175
}

declare dso_local i32 @__isoc99_scanf(i8*, ...) #1

; Function Attrs: nounwind
declare dso_local double @pow(double, double) #2

declare dso_local i32 @printf(i8*, ...) #1


!llvm.module.flags = !{!0}
!llvm.ident = !{!1}

!0 = !{i32 1, !"wchar_size", i32 4}
!1 = !{!"clang version 10.0.0-4ubuntu1 "}
